; Function Attrs: mustprogress uwtable
define void @_ZN4base29FilePersistentMemoryAllocatorC2ESt10unique_ptrINS_16MemoryMappedFileESt14default_deleteIS2_EEmmNS_16BasicStringPieceINSt7__cxx1112basic_stringIcSt11char_traitsIcESaIcEEEEEb(ptr noundef nonnull align 8 captures(none) dereferenceable(56) initializes((0, 26), (32, 48)) %0, ptr noundef captures(none) %1, i64 noundef %2, i64 noundef %3, ptr %4, i64 %5, i1 noundef zeroext %6) unnamed_addr #3 align 2 {
  %8 = alloca %"class.base::BasicStringPiece", align 8
  %9 = load ptr, ptr %1, align 8, !tbaa !75
  %10 = getelementptr inbounds nuw i8, ptr %9, i64 56
  %11 = load ptr, ptr %10, align 8, !tbaa !77
  %.not = icmp eq i64 %2, 0
  br i1 %.not, label %12, label %15

12:                                               ; preds = %7
  %13 = getelementptr inbounds nuw i8, ptr %9, i64 64
  %14 = load i64, ptr %13, align 8, !tbaa !85
  br label %15

15:                                               ; preds = %7, %12
  %16 = phi i64 [ %14, %12 ], [ %2, %7 ]
  store ptr %4, ptr %8, align 8, !tbaa !69
  %.sroa.2.0..sroa_idx = getelementptr inbounds nuw i8, ptr %8, i64 8
  store i64 %5, ptr %.sroa.2.0..sroa_idx, align 8, !tbaa !54
  tail call void @_ZN4base25PersistentMemoryAllocatorC2EPvmmmNS_16BasicStringPieceINSt7__cxx1112basic_stringIcSt11char_traitsIcESaIcEEEEEb(ptr noundef nonnull align 8 dereferenceable(48) %0, ptr noundef %11, i64 noundef %16, i64 noundef 0, i64 noundef %3, ptr noundef nonnull byval(%"class.base::BasicStringPiece") align 8 %8, i1 noundef zeroext %6)
  store ptr getelementptr inbounds nuw inrange(-16, 16) (i8, ptr @_ZTVN4base29FilePersistentMemoryAllocatorE, i64 16), ptr %0, align 8, !tbaa !30
  %17 = getelementptr inbounds nuw i8, ptr %0, i64 48
  %18 = load i64, ptr %1, align 8, !tbaa !75
  store i64 %18, ptr %17, align 8, !tbaa !75
  store ptr null, ptr %1, align 8, !tbaa !75
  ret void
}